target datalayout = "e-m:e-p270:32:32-p271:32:32-p272:64:64-i64:64-i128:128-f80:128-n8:16:32:64-S128"
target triple = "x86_64-pc-linux-gnu"

@recent_cfilter_list = internal global ptr null, align 8
@per_interface_cfilter_lists_hash = internal global ptr null, align 8

; Function Attrs: null_pointer_is_valid sspstrong uwtable
define hidden ptr @recent_get_cfilter_list(ptr noundef %0) #0 {
  %2 = alloca ptr, align 8
  %3 = alloca ptr, align 8
  store ptr %0, ptr %3, align 8
  %4 = load ptr, ptr %3, align 8
  %5 = icmp eq ptr %4, null
  br i1 %5, label %6, label %8

6:                                                ; preds = %1
  %7 = load ptr, ptr @recent_cfilter_list, align 8
  store ptr %7, ptr %2, align 8
  br label %16

8:                                                ; preds = %1
  %9 = load ptr, ptr @per_interface_cfilter_lists_hash, align 8
  %10 = icmp eq ptr %9, null
  br i1 %10, label %11, label %12

11:                                               ; preds = %8
  store ptr null, ptr %2, align 8
  br label %16

12:                                               ; preds = %8
  %13 = load ptr, ptr @per_interface_cfilter_lists_hash, align 8
  %14 = load ptr, ptr %3, align 8
  %15 = call ptr @g_hash_table_lookup(ptr noundef %13, ptr noundef %14)
  store ptr %15, ptr %2, align 8
  br label %16

16:                                               ; preds = %12, %11, %6
  %17 = load ptr, ptr %2, align 8
  ret ptr %17
}