; Function Attrs: null_pointer_is_valid sspstrong uwtable
define hidden ptr @recent_get_cfilter_list(ptr noundef %0) local_unnamed_addr #0 {
  %2 = icmp eq ptr %0, null
  br i1 %2, label %3, label %5

3:                                                ; preds = %1
  %4 = load ptr, ptr @recent_cfilter_list, align 8
  br label %10

5:                                                ; preds = %1
  %6 = load ptr, ptr @per_interface_cfilter_lists_hash, align 8
  %7 = icmp eq ptr %6, null
  br i1 %7, label %10, label %8

8:                                                ; preds = %5
  %9 = tail call ptr @g_hash_table_lookup(ptr noundef nonnull %6, ptr noundef nonnull %0)
  br label %10

10:                                               ; preds = %5, %8, %3
  %.0 = phi ptr [ %4, %3 ], [ %9, %8 ], [ null, %5 ]
  ret ptr %.0
}